Certificate:
    Data:
        Version: 3 (0x2)
        Serial Number: 286 (0x11e)
    Signature Algorithm: sha256WithRSAEncryption
        Issuer: C=cn, ST=gd, L=gz, O=scnu, OU=IT, CN=ca@ca.com/emailAddress=ca@ca.com
        Validity
            Not Before: Sep 23 03:08:21 2020 GMT
            Not After : Sep 23 03:08:21 2021 GMT
        Subject: C=cn, ST=gd, O=scnu, OU=IT, CN=server@server.com/emailAddress=server@server.com
        Subject Public Key Info:
            Public Key Algorithm: rsaEncryption
                Public-Key: (1024 bit)
                Modulus:
                    00:bc:f9:9b:d9:d1:34:3c:ea:15:6b:c4:68:92:cc:
                    f8:ec:7f:8a:cf:af:c7:f3:be:26:65:1e:25:13:20:
                    c2:a8:d9:99:64:d1:ac:f4:b5:b6:e7:ae:90:1b:c4:
                    52:0c:9b:4b:10:c0:de:05:77:99:b2:2c:e5:40:d3:
                    0b:d0:d6:09:12:cf:4d:b7:a9:a2:13:b3:d8:aa:48:
                    01:88:ff:aa:be:52:ae:ef:27:aa:95:f2:80:6b:09:
                    19:ca:25:14:16:7c:09:73:ac:35:ea:5e:df:a3:91:
                    c5:c7:1d:d6:76:26:2c:b1:b3:ed:f9:b0:10:30:22:
                    cd:f3:e7:6f:69:d4:05:5a:d5
                Exponent: 65537 (0x10001)
        X509v3 extensions:
            X509v3 Basic Constraints: 
                CA:FALSE
            Netscape Comment: 
                OpenSSL Generated Certificate
            X509v3 Subject Key Identifier: 
                52:39:A6:91:28:B2:C1:24:CA:93:C8:58:0E:A6:37:94:92:52:61:9A
            X509v3 Authority Key Identifier: 
                keyid:92:87:40:E7:4E:52:87:47:79:8E:E2:F2:43:42:AC:25:26:83:AE:33

    Signature Algorithm: sha256WithRSAEncryption
         73:14:ae:08:70:46:3f:79:aa:34:8d:87:8a:c4:26:2f:95:9c:
         4b:7c:4b:51:51:b5:33:91:06:6a:40:d7:2b:05:87:55:a0:2d:
         42:76:de:31:13:4b:22:2d:7d:c4:64:84:5d:88:61:ea:ca:ef:
         36:f1:97:ab:41:83:14:a6:4f:25:e2:58:14:16:3a:f2:d6:9f:
         eb:bb:9b:e4:70:2c:20:0f:04:d9:5b:77:84:39:a7:c4:a0:19:
         5e:e7:75:72:8c:a1:e6:e7:86:d0:c3:a5:f1:e5:aa:88:22:c7:
         a0:01:5b:30:1b:71:b8:93:19:27:d1:60:28:4d:8c:06:8d:a2:
         45:f5:8b:fd:d7:d0:3b:ea:31:4f:7e:91:1d:20:62:f6:4d:0f:
         7a:31:f5:a1:9f:d4:24:b0:af:f5:92:51:00:3b:77:62:a8:04:
         d3:fd:3e:fe:37:1f:52:53:ee:80:8d:da:74:3e:00:f6:c0:0d:
         50:00:af:d8:d3:cf:4c:78:18:13:fa:dd:40:c1:2c:e2:9c:65:
         40:d7:27:45:70:cc:18:67:f1:7b:c0:c6:bc:9d:86:3a:85:a2:
         6a:79:68:35:a8:45:f1:f2:b2:c8:a6:13:c4:7b:fa:b2:a7:b7:
         8d:a8:b6:15:e4:52:de:c9:1d:5a:51:ee:a2:dd:67:35:b0:14:
         46:06:e4:4a
-----BEGIN CERTIFICATE-----
MIIDWDCCAkCgAwIBAgICAR4wDQYJKoZIhvcNAQELBQAwcTELMAkGA1UEBhMCY24x
CzAJBgNVBAgMAmdkMQswCQYDVQQHDAJnejENMAsGA1UECgwEc2NudTELMAkGA1UE
CwwCSVQxEjAQBgNVBAMMCWNhQGNhLmNvbTEYMBYGCSqGSIb3DQEJARYJY2FAY2Eu
Y29tMB4XDTIwMDkyMzAzMDgyMVoXDTIxMDkyMzAzMDgyMVowdDELMAkGA1UEBhMC
Y24xCzAJBgNVBAgMAmdkMQ0wCwYDVQQKDARzY251MQswCQYDVQQLDAJJVDEaMBgG
A1UEAwwRc2VydmVyQHNlcnZlci5jb20xIDAeBgkqhkiG9w0BCQEWEXNlcnZlckBz
ZXJ2ZXIuY29tMIGfMA0GCSqGSIb3DQEBAQUAA4GNADCBiQKBgQC8+ZvZ0TQ86hVr
xGiSzPjsf4rPr8fzviZlHiUTIMKo2Zlk0az0tbbnrpAbxFIMm0sQwN4Fd5myLOVA
0wvQ1gkSz023qaITs9iqSAGI/6q+Uq7vJ6qV8oBrCRnKJRQWfAlzrDXqXt+jkcXH
HdZ2Jiyxs+35sBAwIs3z529p1AVa1QIDAQABo3sweTAJBgNVHRMEAjAAMCwGCWCG
SAGG+EIBDQQfFh1PcGVuU1NMIEdlbmVyYXRlZCBDZXJ0aWZpY2F0ZTAdBgNVHQ4E
FgQUUjmmkSiywSTKk8hYDqY3lJJSYZowHwYDVR0jBBgwFoAUkodA505Sh0d5juLy
Q0KsJSaDrjMwDQYJKoZIhvcNAQELBQADggEBAHMUrghwRj95qjSNh4rEJi+VnEt8
S1FRtTORBmpA1ysFh1WgLUJ23jETSyItfcRkhF2IYerK7zbxl6tBgxSmTyXiWBQW
OvLWn+u7m+RwLCAPBNlbd4Q5p8SgGV7ndXKMoebnhtDDpfHlqogix6ABWzAbcbiT
GSfRYChNjAaNokX1i/3X0DvqMU9+kR0gYvZND3ox9aGf1CSwr/WSUQA7d2KoBNP9
Pv43H1JT7oCN2nQ+APbADVAAr9jTz0x4GBP63UDBLOKcZUDXJ0VwzBhn8XvAxryd
hjqFomp5aDWoRfHyssimE8R7+rKnt42othXkUt7JHVpR7qLdZzWwFEYG5Eo=
-----END CERTIFICATE-----
