Certificate:
    Data:
        Version: 3 (0x2)
        Serial Number: 286 (0x11e)
    Signature Algorithm: sha256WithRSAEncryption
        Issuer: C=cn, ST=gd, L=gz, O=scnu, OU=IT, CN=ca@ca.com/emailAddress=ca@ca.com
        Validity
            Not Before: Sep 23 03:10:45 2020 GMT
            Not After : Sep 23 03:10:45 2021 GMT
        Subject: C=cn, ST=gd, O=scnu, OU=IT, CN=client@client.com/emailAddress=client@client.com
        Subject Public Key Info:
            Public Key Algorithm: rsaEncryption
                Public-Key: (1024 bit)
                Modulus:
                    00:9d:ea:58:59:eb:d1:f6:02:e0:dd:22:1c:da:3c:
                    d3:3c:c3:81:b7:29:26:4c:a5:fa:a5:d3:33:28:ec:
                    13:64:5b:1a:92:14:8d:b8:41:da:7b:71:b9:a4:c9:
                    8a:ee:f6:d7:01:ca:c6:e4:47:28:2b:71:00:dc:fd:
                    68:12:e7:ae:02:1a:68:50:2e:dd:a7:a8:61:fa:37:
                    85:d6:2d:60:5c:95:07:b2:3b:1d:a4:a3:46:07:7c:
                    23:21:66:10:10:43:0b:c6:3f:55:d3:71:68:48:9b:
                    3e:67:0b:fc:3f:2e:b7:32:bc:d7:cc:c9:91:17:5a:
                    b7:8e:d5:bc:c9:92:8f:b3:87
                Exponent: 65537 (0x10001)
        X509v3 extensions:
            X509v3 Basic Constraints: 
                CA:FALSE
            Netscape Comment: 
                OpenSSL Generated Certificate
            X509v3 Subject Key Identifier: 
                4A:FB:18:7E:54:01:C4:0B:5A:86:9A:50:EE:5F:02:F3:38:81:35:12
            X509v3 Authority Key Identifier: 
                keyid:92:87:40:E7:4E:52:87:47:79:8E:E2:F2:43:42:AC:25:26:83:AE:33

    Signature Algorithm: sha256WithRSAEncryption
         81:22:88:1e:f7:2f:95:9e:fc:fc:06:9f:03:dd:4b:3c:50:d1:
         73:64:a4:12:18:2c:35:2a:1d:93:47:63:b8:68:f0:1f:8c:2c:
         52:90:1c:23:e3:df:c8:ed:01:d7:42:51:72:46:c5:82:ca:e7:
         22:3f:78:97:3d:93:e9:0a:c9:60:9e:13:80:39:b8:d0:54:4a:
         96:10:34:33:87:f9:ab:32:2a:93:d0:99:b3:91:cd:2b:53:60:
         ad:1f:e6:93:7a:83:d7:7e:69:b4:06:a2:e3:1d:10:1f:eb:99:
         55:a8:8e:25:ec:02:51:d2:f7:97:fb:c7:4d:3e:02:1d:d9:cd:
         a0:c1:eb:3f:92:c0:93:39:d3:87:72:72:29:99:74:77:cf:83:
         02:f1:04:07:ed:d0:de:c7:d4:11:a0:68:ce:a6:dd:5a:30:92:
         48:ea:5f:11:dd:66:8c:0f:70:a2:98:42:25:3e:a9:0a:d0:ea:
         83:56:a6:9a:0f:32:e8:41:52:77:b0:bf:2c:dd:1c:02:94:22:
         00:32:ce:7f:55:6c:fd:5f:fa:e8:b5:1d:19:70:0a:4d:15:af:
         1c:93:41:73:9c:27:a1:ce:6a:fe:a2:4a:51:43:40:38:32:23:
         34:03:f0:0c:6a:19:3a:51:6a:2c:ae:69:4d:af:fe:7a:ed:3c:
         02:af:66:f3
-----BEGIN CERTIFICATE-----
MIIDWDCCAkCgAwIBAgICAR4wDQYJKoZIhvcNAQELBQAwcTELMAkGA1UEBhMCY24x
CzAJBgNVBAgMAmdkMQswCQYDVQQHDAJnejENMAsGA1UECgwEc2NudTELMAkGA1UE
CwwCSVQxEjAQBgNVBAMMCWNhQGNhLmNvbTEYMBYGCSqGSIb3DQEJARYJY2FAY2Eu
Y29tMB4XDTIwMDkyMzAzMTA0NVoXDTIxMDkyMzAzMTA0NVowdDELMAkGA1UEBhMC
Y24xCzAJBgNVBAgMAmdkMQ0wCwYDVQQKDARzY251MQswCQYDVQQLDAJJVDEaMBgG
A1UEAwwRY2xpZW50QGNsaWVudC5jb20xIDAeBgkqhkiG9w0BCQEWEWNsaWVudEBj
bGllbnQuY29tMIGfMA0GCSqGSIb3DQEBAQUAA4GNADCBiQKBgQCd6lhZ69H2AuDd
IhzaPNM8w4G3KSZMpfql0zMo7BNkWxqSFI24Qdp7cbmkyYru9tcBysbkRygrcQDc
/WgS564CGmhQLt2nqGH6N4XWLWBclQeyOx2ko0YHfCMhZhAQQwvGP1XTcWhImz5n
C/w/LrcyvNfMyZEXWreO1bzJko+zhwIDAQABo3sweTAJBgNVHRMEAjAAMCwGCWCG
SAGG+EIBDQQfFh1PcGVuU1NMIEdlbmVyYXRlZCBDZXJ0aWZpY2F0ZTAdBgNVHQ4E
FgQUSvsYflQBxAtahppQ7l8C8ziBNRIwHwYDVR0jBBgwFoAUkodA505Sh0d5juLy
Q0KsJSaDrjMwDQYJKoZIhvcNAQELBQADggEBAIEiiB73L5We/PwGnwPdSzxQ0XNk
pBIYLDUqHZNHY7ho8B+MLFKQHCPj38jtAddCUXJGxYLK5yI/eJc9k+kKyWCeE4A5
uNBUSpYQNDOH+asyKpPQmbORzStTYK0f5pN6g9d+abQGouMdEB/rmVWojiXsAlHS
95f7x00+Ah3ZzaDB6z+SwJM504dycimZdHfPgwLxBAft0N7H1BGgaM6m3Vowkkjq
XxHdZowPcKKYQiU+qQrQ6oNWppoPMuhBUnewvyzdHAKUIgAyzn9VbP1f+ui1HRlw
Ck0VrxyTQXOcJ6HOav6iSlFDQDgyIzQD8AxqGTpRaiyuaU2v/nrtPAKvZvM=
-----END CERTIFICATE-----
